	.file	"Helper.cpp"
	.text
.lcomm _ZStL8__ioinit,1,1
	.globl	rate_per_minute
	.bss
	.align 4
rate_per_minute:
	.space 4
	.globl	gpOwner
	.align 8
gpOwner:
	.space 8
	.globl	arrCustomer
	.align 32
arrCustomer:
	.space 80
	.text
	.globl	DllMain
	.def	DllMain;	.scl	2;	.type	32;	.endef
	.seh_proc	DllMain
DllMain:
.LFB6780:
	pushq	%rbp
	.seh_pushreg	%rbp
	movq	%rsp, %rbp
	.seh_setframe	%rbp, 0
	.seh_endprologue
	movq	%rcx, 16(%rbp)
	movl	%edx, 24(%rbp)
	movq	%r8, 32(%rbp)
	cmpl	$3, 24(%rbp)
	je	.L7
	cmpl	$3, 24(%rbp)
	ja	.L3
	cmpl	$2, 24(%rbp)
	je	.L8
	cmpl	$2, 24(%rbp)
	ja	.L3
	cmpl	$0, 24(%rbp)
	je	.L9
	cmpl	$1, 24(%rbp)
	jmp	.L3
.L7:
	nop
	jmp	.L3
.L8:
	nop
	jmp	.L3
.L9:
	nop
.L3:
	movl	$1, %eax
	popq	%rbp
	ret
	.seh_endproc
	.section .rdata,"dr"
	.align 8
.LC0:
	.ascii "=======================================================\0"
	.align 8
.LC1:
	.ascii "\12             Enter the rate for today\0"
	.align 8
.LC2:
	.ascii "\12             Successfully registered\0"
.LC3:
	.ascii "\12             Not registered\0"
	.text
	.globl	_createOwner
	.def	_createOwner;	.scl	2;	.type	32;	.endef
	.seh_proc	_createOwner
_createOwner:
.LFB6781:
	pushq	%rbp
	.seh_pushreg	%rbp
	pushq	%rsi
	.seh_pushreg	%rsi
	pushq	%rbx
	.seh_pushreg	%rbx
	subq	$48, %rsp
	.seh_stackalloc	48
	leaq	48(%rsp), %rbp
	.seh_setframe	%rbp, 48
	.seh_endprologue
	leaq	.LC0(%rip), %rax
	movq	%rax, %rdx
	movq	.refptr._ZSt4cout(%rip), %rax
	movq	%rax, %rcx
.LEHB0:
	call	_ZStlsISt11char_traitsIcEERSt13basic_ostreamIcT_ES5_PKc
	movq	%rax, %rcx
	movq	.refptr._ZSt4endlIcSt11char_traitsIcEERSt13basic_ostreamIT_T0_ES6_(%rip), %rax
	movq	%rax, %rdx
	call	_ZNSolsEPFRSoS_E
	leaq	.LC1(%rip), %rax
	movq	%rax, %rdx
	movq	.refptr._ZSt4cout(%rip), %rax
	movq	%rax, %rcx
	call	_ZStlsISt11char_traitsIcEERSt13basic_ostreamIcT_ES5_PKc
	movq	%rax, %rcx
	movq	.refptr._ZSt4endlIcSt11char_traitsIcEERSt13basic_ostreamIT_T0_ES6_(%rip), %rax
	movq	%rax, %rdx
	call	_ZNSolsEPFRSoS_E
	leaq	.LC0(%rip), %rax
	movq	%rax, %rdx
	movq	.refptr._ZSt4cout(%rip), %rax
	movq	%rax, %rcx
	call	_ZStlsISt11char_traitsIcEERSt13basic_ostreamIcT_ES5_PKc
	movq	%rax, %rcx
	movq	.refptr._ZSt4endlIcSt11char_traitsIcEERSt13basic_ostreamIT_T0_ES6_(%rip), %rax
	movq	%rax, %rdx
	call	_ZNSolsEPFRSoS_E
	leaq	rate_per_minute(%rip), %rax
	movq	%rax, %rdx
	movq	.refptr._ZSt3cin(%rip), %rax
	movq	%rax, %rcx
	call	_ZNSirsERi
	movl	$2128, %ecx
	call	_Znwy
.LEHE0:
	movq	%rax, %rbx
	movl	rate_per_minute(%rip), %eax
	movl	%eax, %edx
	movq	%rbx, %rcx
.LEHB1:
	call	_ZN5OwnerC1Ej
.LEHE1:
	movq	%rbx, -8(%rbp)
	movq	-8(%rbp), %rax
	movq	(%rax), %rax
	movq	(%rax), %rdx
	movq	-8(%rbp), %rax
	movq	%rax, %rcx
.LEHB2:
	call	*%rdx
	testb	%al, %al
	je	.L11
	movq	-8(%rbp), %rax
	movq	%rax, gpOwner(%rip)
	leaq	.LC0(%rip), %rax
	movq	%rax, %rdx
	movq	.refptr._ZSt4cout(%rip), %rax
	movq	%rax, %rcx
	call	_ZStlsISt11char_traitsIcEERSt13basic_ostreamIcT_ES5_PKc
	movq	%rax, %rcx
	movq	.refptr._ZSt4endlIcSt11char_traitsIcEERSt13basic_ostreamIT_T0_ES6_(%rip), %rax
	movq	%rax, %rdx
	call	_ZNSolsEPFRSoS_E
	leaq	.LC2(%rip), %rax
	movq	%rax, %rdx
	movq	.refptr._ZSt4cout(%rip), %rax
	movq	%rax, %rcx
	call	_ZStlsISt11char_traitsIcEERSt13basic_ostreamIcT_ES5_PKc
	movq	%rax, %rcx
	movq	.refptr._ZSt4endlIcSt11char_traitsIcEERSt13basic_ostreamIT_T0_ES6_(%rip), %rax
	movq	%rax, %rdx
	call	_ZNSolsEPFRSoS_E
	leaq	.LC0(%rip), %rax
	movq	%rax, %rdx
	movq	.refptr._ZSt4cout(%rip), %rax
	movq	%rax, %rcx
	call	_ZStlsISt11char_traitsIcEERSt13basic_ostreamIcT_ES5_PKc
	movq	%rax, %rcx
	movq	.refptr._ZSt4endlIcSt11char_traitsIcEERSt13basic_ostreamIT_T0_ES6_(%rip), %rax
	movq	%rax, %rdx
	call	_ZNSolsEPFRSoS_E
	jmp	.L10
.L11:
	leaq	.LC0(%rip), %rax
	movq	%rax, %rdx
	movq	.refptr._ZSt4cout(%rip), %rax
	movq	%rax, %rcx
	call	_ZStlsISt11char_traitsIcEERSt13basic_ostreamIcT_ES5_PKc
	movq	%rax, %rcx
	movq	.refptr._ZSt4endlIcSt11char_traitsIcEERSt13basic_ostreamIT_T0_ES6_(%rip), %rax
	movq	%rax, %rdx
	call	_ZNSolsEPFRSoS_E
	leaq	.LC3(%rip), %rax
	movq	%rax, %rdx
	movq	.refptr._ZSt4cout(%rip), %rax
	movq	%rax, %rcx
	call	_ZStlsISt11char_traitsIcEERSt13basic_ostreamIcT_ES5_PKc
	movq	%rax, %rcx
	movq	.refptr._ZSt4endlIcSt11char_traitsIcEERSt13basic_ostreamIT_T0_ES6_(%rip), %rax
	movq	%rax, %rdx
	call	_ZNSolsEPFRSoS_E
	leaq	.LC0(%rip), %rax
	movq	%rax, %rdx
	movq	.refptr._ZSt4cout(%rip), %rax
	movq	%rax, %rcx
	call	_ZStlsISt11char_traitsIcEERSt13basic_ostreamIcT_ES5_PKc
	movq	%rax, %rcx
	movq	.refptr._ZSt4endlIcSt11char_traitsIcEERSt13basic_ostreamIT_T0_ES6_(%rip), %rax
	movq	%rax, %rdx
	call	_ZNSolsEPFRSoS_E
	jmp	.L10
.L14:
	movq	%rax, %rsi
	movl	$2128, %edx
	movq	%rbx, %rcx
	call	_ZdlPvy
	movq	%rsi, %rax
	movq	%rax, %rcx
	call	_Unwind_Resume
	nop
.LEHE2:
.L10:
	addq	$48, %rsp
	popq	%rbx
	popq	%rsi
	popq	%rbp
	ret
	.def	__gxx_personality_seh0;	.scl	2;	.type	32;	.endef
	.seh_handler	__gxx_personality_seh0, @unwind, @except
	.seh_handlerdata
.LLSDA6781:
	.byte	0xff
	.byte	0xff
	.byte	0x1
	.uleb128 .LLSDACSE6781-.LLSDACSB6781
.LLSDACSB6781:
	.uleb128 .LEHB0-.LFB6781
	.uleb128 .LEHE0-.LEHB0
	.uleb128 0
	.uleb128 0
	.uleb128 .LEHB1-.LFB6781
	.uleb128 .LEHE1-.LEHB1
	.uleb128 .L14-.LFB6781
	.uleb128 0
	.uleb128 .LEHB2-.LFB6781
	.uleb128 .LEHE2-.LEHB2
	.uleb128 0
	.uleb128 0
.LLSDACSE6781:
	.text
	.seh_endproc
	.globl	_loginOwner
	.def	_loginOwner;	.scl	2;	.type	32;	.endef
	.seh_proc	_loginOwner
_loginOwner:
.LFB6782:
	pushq	%rbp
	.seh_pushreg	%rbp
	pushq	%rsi
	.seh_pushreg	%rsi
	pushq	%rbx
	.seh_pushreg	%rbx
	subq	$48, %rsp
	.seh_stackalloc	48
	leaq	48(%rsp), %rbp
	.seh_setframe	%rbp, 48
	.seh_endprologue
	movl	rate_per_minute(%rip), %eax
	testl	%eax, %eax
	jne	.L16
	leaq	.LC0(%rip), %rax
	movq	%rax, %rdx
	movq	.refptr._ZSt4cout(%rip), %rax
	movq	%rax, %rcx
.LEHB3:
	call	_ZStlsISt11char_traitsIcEERSt13basic_ostreamIcT_ES5_PKc
	movq	%rax, %rcx
	movq	.refptr._ZSt4endlIcSt11char_traitsIcEERSt13basic_ostreamIT_T0_ES6_(%rip), %rax
	movq	%rax, %rdx
	call	_ZNSolsEPFRSoS_E
	leaq	.LC1(%rip), %rax
	movq	%rax, %rdx
	movq	.refptr._ZSt4cout(%rip), %rax
	movq	%rax, %rcx
	call	_ZStlsISt11char_traitsIcEERSt13basic_ostreamIcT_ES5_PKc
	movq	%rax, %rcx
	movq	.refptr._ZSt4endlIcSt11char_traitsIcEERSt13basic_ostreamIT_T0_ES6_(%rip), %rax
	movq	%rax, %rdx
	call	_ZNSolsEPFRSoS_E
	leaq	.LC0(%rip), %rax
	movq	%rax, %rdx
	movq	.refptr._ZSt4cout(%rip), %rax
	movq	%rax, %rcx
	call	_ZStlsISt11char_traitsIcEERSt13basic_ostreamIcT_ES5_PKc
	movq	%rax, %rcx
	movq	.refptr._ZSt4endlIcSt11char_traitsIcEERSt13basic_ostreamIT_T0_ES6_(%rip), %rax
	movq	%rax, %rdx
	call	_ZNSolsEPFRSoS_E
	leaq	rate_per_minute(%rip), %rax
	movq	%rax, %rdx
	movq	.refptr._ZSt3cin(%rip), %rax
	movq	%rax, %rcx
	call	_ZNSirsERi
	movl	$2128, %ecx
	call	_Znwy
.LEHE3:
	movq	%rax, %rbx
	movl	rate_per_minute(%rip), %eax
	movl	%eax, %edx
	movq	%rbx, %rcx
.LEHB4:
	call	_ZN5OwnerC1Ej
.LEHE4:
	movq	%rbx, -8(%rbp)
	movq	-8(%rbp), %rax
	movq	(%rax), %rax
	addq	$8, %rax
	movq	(%rax), %rdx
	movq	-8(%rbp), %rax
	movq	%rax, %rcx
.LEHB5:
	call	*%rdx
	testb	%al, %al
	je	.L17
	movq	-8(%rbp), %rax
	movq	%rax, gpOwner(%rip)
	movl	$1, %eax
	jmp	.L21
.L17:
	movl	$0, %eax
	jmp	.L21
.L16:
	movl	$0, %eax
	jmp	.L21
.L20:
	movq	%rax, %rsi
	movl	$2128, %edx
	movq	%rbx, %rcx
	call	_ZdlPvy
	movq	%rsi, %rax
	movq	%rax, %rcx
	call	_Unwind_Resume
.LEHE5:
.L21:
	addq	$48, %rsp
	popq	%rbx
	popq	%rsi
	popq	%rbp
	ret
	.seh_handler	__gxx_personality_seh0, @unwind, @except
	.seh_handlerdata
.LLSDA6782:
	.byte	0xff
	.byte	0xff
	.byte	0x1
	.uleb128 .LLSDACSE6782-.LLSDACSB6782
.LLSDACSB6782:
	.uleb128 .LEHB3-.LFB6782
	.uleb128 .LEHE3-.LEHB3
	.uleb128 0
	.uleb128 0
	.uleb128 .LEHB4-.LFB6782
	.uleb128 .LEHE4-.LEHB4
	.uleb128 .L20-.LFB6782
	.uleb128 0
	.uleb128 .LEHB5-.LFB6782
	.uleb128 .LEHE5-.LEHB5
	.uleb128 0
	.uleb128 0
.LLSDACSE6782:
	.text
	.seh_endproc
	.def	__tcf_0;	.scl	3;	.type	32;	.endef
	.seh_proc	__tcf_0
__tcf_0:
.LFB7286:
	pushq	%rbp
	.seh_pushreg	%rbp
	movq	%rsp, %rbp
	.seh_setframe	%rbp, 0
	subq	$32, %rsp
	.seh_stackalloc	32
	.seh_endprologue
	leaq	_ZStL8__ioinit(%rip), %rax
	movq	%rax, %rcx
	call	_ZNSt8ios_base4InitD1Ev
	nop
	addq	$32, %rsp
	popq	%rbp
	ret
	.seh_endproc
	.def	_Z41__static_initialization_and_destruction_0ii;	.scl	3;	.type	32;	.endef
	.seh_proc	_Z41__static_initialization_and_destruction_0ii
_Z41__static_initialization_and_destruction_0ii:
.LFB7285:
	pushq	%rbp
	.seh_pushreg	%rbp
	movq	%rsp, %rbp
	.seh_setframe	%rbp, 0
	subq	$32, %rsp
	.seh_stackalloc	32
	.seh_endprologue
	movl	%ecx, 16(%rbp)
	movl	%edx, 24(%rbp)
	cmpl	$1, 16(%rbp)
	jne	.L25
	cmpl	$65535, 24(%rbp)
	jne	.L25
	leaq	_ZStL8__ioinit(%rip), %rax
	movq	%rax, %rcx
	call	_ZNSt8ios_base4InitC1Ev
	leaq	__tcf_0(%rip), %rax
	movq	%rax, %rcx
	call	atexit
.L25:
	nop
	addq	$32, %rsp
	popq	%rbp
	ret
	.seh_endproc
	.def	_GLOBAL__sub_I_rate_per_minute;	.scl	3;	.type	32;	.endef
	.seh_proc	_GLOBAL__sub_I_rate_per_minute
_GLOBAL__sub_I_rate_per_minute:
.LFB7287:
	pushq	%rbp
	.seh_pushreg	%rbp
	movq	%rsp, %rbp
	.seh_setframe	%rbp, 0
	subq	$32, %rsp
	.seh_stackalloc	32
	.seh_endprologue
	movl	$65535, %edx
	movl	$1, %ecx
	call	_Z41__static_initialization_and_destruction_0ii
	nop
	addq	$32, %rsp
	popq	%rbp
	ret
	.seh_endproc
	.section	.ctors,"w"
	.align 8
	.quad	_GLOBAL__sub_I_rate_per_minute
	.ident	"GCC: (Rev5, Built by MSYS2 project) 11.2.0"
	.def	_ZStlsISt11char_traitsIcEERSt13basic_ostreamIcT_ES5_PKc;	.scl	2;	.type	32;	.endef
	.def	_ZNSolsEPFRSoS_E;	.scl	2;	.type	32;	.endef
	.def	_ZNSirsERi;	.scl	2;	.type	32;	.endef
	.def	_Znwy;	.scl	2;	.type	32;	.endef
	.def	_ZN5OwnerC1Ej;	.scl	2;	.type	32;	.endef
	.def	_ZdlPvy;	.scl	2;	.type	32;	.endef
	.def	_Unwind_Resume;	.scl	2;	.type	32;	.endef
	.def	_ZNSt8ios_base4InitD1Ev;	.scl	2;	.type	32;	.endef
	.def	_ZNSt8ios_base4InitC1Ev;	.scl	2;	.type	32;	.endef
	.def	atexit;	.scl	2;	.type	32;	.endef
	.section	.rdata$.refptr._ZSt3cin, "dr"
	.globl	.refptr._ZSt3cin
	.linkonce	discard
.refptr._ZSt3cin:
	.quad	_ZSt3cin
	.section	.rdata$.refptr._ZSt4endlIcSt11char_traitsIcEERSt13basic_ostreamIT_T0_ES6_, "dr"
	.globl	.refptr._ZSt4endlIcSt11char_traitsIcEERSt13basic_ostreamIT_T0_ES6_
	.linkonce	discard
.refptr._ZSt4endlIcSt11char_traitsIcEERSt13basic_ostreamIT_T0_ES6_:
	.quad	_ZSt4endlIcSt11char_traitsIcEERSt13basic_ostreamIT_T0_ES6_
	.section	.rdata$.refptr._ZSt4cout, "dr"
	.globl	.refptr._ZSt4cout
	.linkonce	discard
.refptr._ZSt4cout:
	.quad	_ZSt4cout
